target datalayout = "e-m:e-p270:32:32-p271:32:32-p272:64:64-i64:64-i128:128-f80:128-n8:16:32:64-S128"
target triple = "x86_64-pc-linux-gnu"

@.str.4 = private unnamed_addr constant [2 x i8] c"r\00", align 1

; Function Attrs: nounwind uwtable
define i32 @cl_verify_signature_fd_x509(ptr noundef %0, ptr noundef %1, ptr noundef %2, i32 noundef %3, i32 noundef %4) #0 {
  %6 = alloca i32, align 4
  %7 = alloca ptr, align 8
  %8 = alloca ptr, align 8
  %9 = alloca ptr, align 8
  %10 = alloca i32, align 4
  %11 = alloca i32, align 4
  %12 = alloca ptr, align 8
  %13 = alloca i32, align 4
  %14 = alloca i32, align 4
  store ptr %0, ptr %7, align 8, !tbaa !26
  store ptr %1, ptr %8, align 8, !tbaa !3
  store ptr %2, ptr %9, align 8, !tbaa !3
  store i32 %3, ptr %10, align 4, !tbaa !13
  store i32 %4, ptr %11, align 4, !tbaa !13
  call void @llvm.lifetime.start.p0(i64 8, ptr %12) #8
  call void @llvm.lifetime.start.p0(i64 4, ptr %13) #8
  %15 = load ptr, ptr %7, align 8, !tbaa !26
  %16 = call ptr @X509_get_pubkey(ptr noundef %15)
  store ptr %16, ptr %12, align 8, !tbaa !24
  %17 = load ptr, ptr %12, align 8, !tbaa !24
  %18 = icmp ne ptr %17, null
  br i1 %18, label %20, label %19

19:                                               ; preds = %5
  store i32 -1, ptr %6, align 4
  store i32 1, ptr %14, align 4
  br label %29

20:                                               ; preds = %5
  %21 = load ptr, ptr %12, align 8, !tbaa !24
  %22 = load ptr, ptr %8, align 8, !tbaa !3
  %23 = load ptr, ptr %9, align 8, !tbaa !3
  %24 = load i32, ptr %10, align 4, !tbaa !13
  %25 = load i32, ptr %11, align 4, !tbaa !13
  %26 = call i32 @cl_verify_signature_fd(ptr noundef %21, ptr noundef %22, ptr noundef %23, i32 noundef %24, i32 noundef %25)
  store i32 %26, ptr %13, align 4, !tbaa !13
  %27 = load ptr, ptr %12, align 8, !tbaa !24
  call void @EVP_PKEY_free(ptr noundef %27)
  %28 = load i32, ptr %13, align 4, !tbaa !13
  store i32 %28, ptr %6, align 4
  store i32 1, ptr %14, align 4
  br label %29

29:                                               ; preds = %20, %19
  call void @llvm.lifetime.end.p0(i64 4, ptr %13) #8
  call void @llvm.lifetime.end.p0(i64 8, ptr %12) #8
  %30 = load i32, ptr %6, align 4
  ret i32 %30
}

; Function Attrs: nounwind uwtable
define i32 @cl_verify_signature_fd_x509_keyfile(ptr noundef %0, ptr noundef %1, ptr noundef %2, i32 noundef %3, i32 noundef %4) #0 {
  %6 = alloca i32, align 4
  %7 = alloca ptr, align 8
  %8 = alloca ptr, align 8
  %9 = alloca ptr, align 8
  %10 = alloca i32, align 4
  %11 = alloca i32, align 4
  %12 = alloca ptr, align 8
  %13 = alloca ptr, align 8
  %14 = alloca i32, align 4
  %15 = alloca i32, align 4
  store ptr %0, ptr %7, align 8, !tbaa !3
  store ptr %1, ptr %8, align 8, !tbaa !3
  store ptr %2, ptr %9, align 8, !tbaa !3
  store i32 %3, ptr %10, align 4, !tbaa !13
  store i32 %4, ptr %11, align 4, !tbaa !13
  call void @llvm.lifetime.start.p0(i64 8, ptr %12) #8
  call void @llvm.lifetime.start.p0(i64 8, ptr %13) #8
  call void @llvm.lifetime.start.p0(i64 4, ptr %14) #8
  %16 = load ptr, ptr %7, align 8, !tbaa !3
  %17 = call noalias ptr @fopen(ptr noundef %16, ptr noundef @.str.4)
  store ptr %17, ptr %13, align 8, !tbaa !22
  %18 = load ptr, ptr %13, align 8, !tbaa !22
  %19 = icmp ne ptr %18, null
  br i1 %19, label %21, label %20

20:                                               ; preds = %5
  store i32 -1, ptr %6, align 4
  store i32 1, ptr %15, align 4
  br label %40

21:                                               ; preds = %5
  %22 = load ptr, ptr %13, align 8, !tbaa !22
  %23 = call ptr @PEM_read_X509(ptr noundef %22, ptr noundef null, ptr noundef null, ptr noundef null)
  store ptr %23, ptr %12, align 8, !tbaa !26
  %24 = load ptr, ptr %12, align 8, !tbaa !26
  %25 = icmp ne ptr %24, null
  br i1 %25, label %29, label %26

26:                                               ; preds = %21
  %27 = load ptr, ptr %13, align 8, !tbaa !22
  %28 = call i32 @fclose(ptr noundef %27)
  store i32 -1, ptr %6, align 4
  store i32 1, ptr %15, align 4
  br label %40

29:                                               ; preds = %21
  %30 = load ptr, ptr %13, align 8, !tbaa !22
  %31 = call i32 @fclose(ptr noundef %30)
  %32 = load ptr, ptr %12, align 8, !tbaa !26
  %33 = load ptr, ptr %8, align 8, !tbaa !3
  %34 = load ptr, ptr %9, align 8, !tbaa !3
  %35 = load i32, ptr %10, align 4, !tbaa !13
  %36 = load i32, ptr %11, align 4, !tbaa !13
  %37 = call i32 @cl_verify_signature_fd_x509(ptr noundef %32, ptr noundef %33, ptr noundef %34, i32 noundef %35, i32 noundef %36)
  store i32 %37, ptr %14, align 4, !tbaa !13
  %38 = load ptr, ptr %12, align 8, !tbaa !26
  call void @X509_free(ptr noundef %38)
  %39 = load i32, ptr %14, align 4, !tbaa !13
  store i32 %39, ptr %6, align 4
  store i32 1, ptr %15, align 4
  br label %40

40:                                               ; preds = %29, %26, %20
  call void @llvm.lifetime.end.p0(i64 4, ptr %14) #8
  call void @llvm.lifetime.end.p0(i64 8, ptr %13) #8
  call void @llvm.lifetime.end.p0(i64 8, ptr %12) #8
  %41 = load i32, ptr %6, align 4
  ret i32 %41
}