; Function Attrs: nounwind uwtable
define range(i32 -1, 1) i32 @cl_verify_signature_fd_x509_keyfile(ptr noundef readonly captures(none) %0, ptr noundef %1, ptr noundef %2, i32 noundef %3, i32 noundef %4) local_unnamed_addr #1 {
  %6 = tail call noalias ptr @fopen(ptr noundef %0, ptr noundef nonnull @.str.4)
  %.not = icmp eq ptr %6, null
  br i1 %.not, label %14, label %7

7:                                                ; preds = %5
  %8 = tail call ptr @PEM_read_X509(ptr noundef nonnull %6, ptr noundef null, ptr noundef null, ptr noundef null) #12
  %.not15 = icmp eq ptr %8, null
  %9 = tail call i32 @fclose(ptr noundef nonnull %6)
  br i1 %.not15, label %14, label %10

10:                                               ; preds = %7
  %11 = tail call ptr @X509_get_pubkey(ptr noundef nonnull %8) #12
  %.not.i = icmp eq ptr %11, null
  br i1 %.not.i, label %cl_verify_signature_fd_x509.exit, label %12

12:                                               ; preds = %10
  %13 = tail call i32 @cl_verify_signature_fd(ptr noundef nonnull %11, ptr noundef %1, ptr noundef %2, i32 noundef %3, i32 noundef %4)
  tail call void @EVP_PKEY_free(ptr noundef nonnull %11) #12
  br label %cl_verify_signature_fd_x509.exit

cl_verify_signature_fd_x509.exit:                 ; preds = %10, %12
  %.0.i = phi i32 [ %13, %12 ], [ -1, %10 ]
  tail call void @X509_free(ptr noundef nonnull %8) #12
  br label %14

14:                                               ; preds = %7, %5, %cl_verify_signature_fd_x509.exit
  %.0 = phi i32 [ %.0.i, %cl_verify_signature_fd_x509.exit ], [ -1, %5 ], [ -1, %7 ]
  ret i32 %.0
}